target datalayout = "e-m:e-p270:32:32-p271:32:32-p272:64:64-i64:64-i128:128-f80:128-n8:16:32:64-S128"
target triple = "x86_64-pc-linux-gnu"

%struct.Variables = type { ptr, i32, i32, i8 }
%struct.Variable = type { ptr, ptr, %struct.PgBenchValue }
%struct.PgBenchValue = type { i32, %union.anon }
%union.anon = type { i64 }

@.str.8 = private unnamed_addr constant [3 x i8] c"%s\00", align 1
@.str.238 = private unnamed_addr constant [4 x i8] c"%ld\00", align 1
@.str.375 = private unnamed_addr constant [5 x i8] c"NULL\00", align 1
@.str.376 = private unnamed_addr constant [5 x i8] c"true\00", align 1
@.str.377 = private unnamed_addr constant [6 x i8] c"false\00", align 1
@.str.378 = private unnamed_addr constant [5 x i8] c"%.*g\00", align 1

; Function Attrs: inlinehint nounwind uwtable
define available_externally ptr @bsearch(ptr noundef nonnull %0, ptr noundef nonnull %1, i64 noundef %2, i64 noundef %3, ptr noundef nonnull %4) #4 {
  %6 = alloca ptr, align 8
  %7 = alloca ptr, align 8
  %8 = alloca ptr, align 8
  %9 = alloca i64, align 8
  %10 = alloca i64, align 8
  %11 = alloca ptr, align 8
  %12 = alloca i64, align 8
  %13 = alloca i64, align 8
  %14 = alloca i64, align 8
  %15 = alloca ptr, align 8
  %16 = alloca i32, align 4
  %17 = alloca i32, align 4
  store ptr %0, ptr %7, align 8
  store ptr %1, ptr %8, align 8
  store i64 %2, ptr %9, align 8
  store i64 %3, ptr %10, align 8
  store ptr %4, ptr %11, align 8
  call void @llvm.lifetime.start.p0(i64 8, ptr %12) #14
  call void @llvm.lifetime.start.p0(i64 8, ptr %13) #14
  call void @llvm.lifetime.start.p0(i64 8, ptr %14) #14
  call void @llvm.lifetime.start.p0(i64 8, ptr %15) #14
  call void @llvm.lifetime.start.p0(i64 4, ptr %16) #14
  store i64 0, ptr %12, align 8
  %18 = load i64, ptr %9, align 8
  store i64 %18, ptr %13, align 8
  br label %19

19:                                               ; preds = %50, %5
  %20 = load i64, ptr %12, align 8
  %21 = load i64, ptr %13, align 8
  %22 = icmp ult i64 %20, %21
  br i1 %22, label %23, label %51

23:                                               ; preds = %19
  %24 = load i64, ptr %12, align 8
  %25 = load i64, ptr %13, align 8
  %26 = add i64 %24, %25
  %27 = udiv i64 %26, 2
  store i64 %27, ptr %14, align 8
  %28 = load ptr, ptr %8, align 8
  %29 = load i64, ptr %14, align 8
  %30 = load i64, ptr %10, align 8
  %31 = mul i64 %29, %30
  %32 = getelementptr inbounds nuw i8, ptr %28, i64 %31
  store ptr %32, ptr %15, align 8
  %33 = load ptr, ptr %11, align 8
  %34 = load ptr, ptr %7, align 8
  %35 = load ptr, ptr %15, align 8
  %36 = call i32 %33(ptr noundef %34, ptr noundef %35)
  store i32 %36, ptr %16, align 4
  %37 = load i32, ptr %16, align 4
  %38 = icmp slt i32 %37, 0
  br i1 %38, label %39, label %41

39:                                               ; preds = %23
  %40 = load i64, ptr %14, align 8
  store i64 %40, ptr %13, align 8
  br label %50

41:                                               ; preds = %23
  %42 = load i32, ptr %16, align 4
  %43 = icmp sgt i32 %42, 0
  br i1 %43, label %44, label %47

44:                                               ; preds = %41
  %45 = load i64, ptr %14, align 8
  %46 = add i64 %45, 1
  store i64 %46, ptr %12, align 8
  br label %49

47:                                               ; preds = %41
  %48 = load ptr, ptr %15, align 8
  store ptr %48, ptr %6, align 8
  store i32 1, ptr %17, align 4
  br label %52

49:                                               ; preds = %44
  br label %50

50:                                               ; preds = %49, %39
  br label %19, !llvm.loop !54

51:                                               ; preds = %19
  store ptr null, ptr %6, align 8
  store i32 1, ptr %17, align 4
  br label %52

52:                                               ; preds = %51, %47
  call void @llvm.lifetime.end.p0(i64 4, ptr %16) #14
  call void @llvm.lifetime.end.p0(i64 8, ptr %15) #14
  call void @llvm.lifetime.end.p0(i64 8, ptr %14) #14
  call void @llvm.lifetime.end.p0(i64 8, ptr %13) #14
  call void @llvm.lifetime.end.p0(i64 8, ptr %12) #14
  %53 = load ptr, ptr %6, align 8
  ret ptr %53
}

; Function Attrs: nounwind uwtable
define internal ptr @lookupVariable(ptr noundef %0, ptr noundef %1) #0 {
  %3 = alloca ptr, align 8
  %4 = alloca ptr, align 8
  %5 = alloca ptr, align 8
  %6 = alloca %struct.Variable, align 8
  %7 = alloca i32, align 4
  store ptr %0, ptr %4, align 8
  store ptr %1, ptr %5, align 8
  call void @llvm.lifetime.start.p0(i64 32, ptr %6) #14
  %8 = load ptr, ptr %4, align 8
  %9 = getelementptr inbounds nuw %struct.Variables, ptr %8, i32 0, i32 1
  %10 = load i32, ptr %9, align 8
  %11 = icmp sle i32 %10, 0
  br i1 %11, label %12, label %13

12:                                               ; preds = %2
  store ptr null, ptr %3, align 8
  store i32 1, ptr %7, align 4
  br label %39

13:                                               ; preds = %2
  %14 = load ptr, ptr %4, align 8
  %15 = getelementptr inbounds nuw %struct.Variables, ptr %14, i32 0, i32 3
  %16 = load i8, ptr %15, align 8, !range !8, !noundef !9
  %17 = trunc i8 %16 to i1
  br i1 %17, label %28, label %18

18:                                               ; preds = %13
  %19 = load ptr, ptr %4, align 8
  %20 = getelementptr inbounds nuw %struct.Variables, ptr %19, i32 0, i32 0
  %21 = load ptr, ptr %20, align 8
  %22 = load ptr, ptr %4, align 8
  %23 = getelementptr inbounds nuw %struct.Variables, ptr %22, i32 0, i32 1
  %24 = load i32, ptr %23, align 8
  %25 = sext i32 %24 to i64
  call void @pg_qsort(ptr noundef %21, i64 noundef %25, i64 noundef 32, ptr noundef @compareVariableNames)
  %26 = load ptr, ptr %4, align 8
  %27 = getelementptr inbounds nuw %struct.Variables, ptr %26, i32 0, i32 3
  store i8 1, ptr %27, align 8
  br label %28

28:                                               ; preds = %18, %13
  %29 = load ptr, ptr %5, align 8
  %30 = getelementptr inbounds nuw %struct.Variable, ptr %6, i32 0, i32 0
  store ptr %29, ptr %30, align 8
  %31 = load ptr, ptr %4, align 8
  %32 = getelementptr inbounds nuw %struct.Variables, ptr %31, i32 0, i32 0
  %33 = load ptr, ptr %32, align 8
  %34 = load ptr, ptr %4, align 8
  %35 = getelementptr inbounds nuw %struct.Variables, ptr %34, i32 0, i32 1
  %36 = load i32, ptr %35, align 8
  %37 = sext i32 %36 to i64
  %38 = call ptr @bsearch(ptr noundef %6, ptr noundef %33, i64 noundef %37, i64 noundef 32, ptr noundef @compareVariableNames)
  store ptr %38, ptr %3, align 8
  store i32 1, ptr %7, align 4
  br label %39

39:                                               ; preds = %28, %12
  call void @llvm.lifetime.end.p0(i64 32, ptr %6) #14
  %40 = load ptr, ptr %3, align 8
  ret ptr %40
}

; Function Attrs: nounwind uwtable
define internal ptr @getVariable(ptr noundef %0, ptr noundef %1) #0 {
  %3 = alloca ptr, align 8
  %4 = alloca ptr, align 8
  %5 = alloca ptr, align 8
  %6 = alloca ptr, align 8
  %7 = alloca [64 x i8], align 16
  %8 = alloca i32, align 4
  store ptr %0, ptr %4, align 8
  store ptr %1, ptr %5, align 8
  call void @llvm.lifetime.start.p0(i64 8, ptr %6) #14
  call void @llvm.lifetime.start.p0(i64 64, ptr %7) #14
  %9 = load ptr, ptr %4, align 8
  %10 = load ptr, ptr %5, align 8
  %11 = call ptr @lookupVariable(ptr noundef %9, ptr noundef %10)
  store ptr %11, ptr %6, align 8
  %12 = load ptr, ptr %6, align 8
  %13 = icmp eq ptr %12, null
  br i1 %13, label %14, label %15

14:                                               ; preds = %2
  store ptr null, ptr %3, align 8
  store i32 1, ptr %8, align 4
  br label %86

15:                                               ; preds = %2
  %16 = load ptr, ptr %6, align 8
  %17 = getelementptr inbounds nuw %struct.Variable, ptr %16, i32 0, i32 1
  %18 = load ptr, ptr %17, align 8
  %19 = icmp ne ptr %18, null
  br i1 %19, label %20, label %24

20:                                               ; preds = %15
  %21 = load ptr, ptr %6, align 8
  %22 = getelementptr inbounds nuw %struct.Variable, ptr %21, i32 0, i32 1
  %23 = load ptr, ptr %22, align 8
  store ptr %23, ptr %3, align 8
  store i32 1, ptr %8, align 4
  br label %86

24:                                               ; preds = %15
  %25 = load ptr, ptr %6, align 8
  %26 = getelementptr inbounds nuw %struct.Variable, ptr %25, i32 0, i32 2
  %27 = getelementptr inbounds nuw %struct.PgBenchValue, ptr %26, i32 0, i32 0
  %28 = load i32, ptr %27, align 8
  %29 = icmp eq i32 %28, 1
  br i1 %29, label %30, label %33

30:                                               ; preds = %24
  %31 = getelementptr inbounds [64 x i8], ptr %7, i64 0, i64 0
  %32 = call i32 (ptr, i64, ptr, ...) @pg_snprintf(ptr noundef %31, i64 noundef 64, ptr noundef @.str.375)
  br label %78

33:                                               ; preds = %24
  %34 = load ptr, ptr %6, align 8
  %35 = getelementptr inbounds nuw %struct.Variable, ptr %34, i32 0, i32 2
  %36 = getelementptr inbounds nuw %struct.PgBenchValue, ptr %35, i32 0, i32 0
  %37 = load i32, ptr %36, align 8
  %38 = icmp eq i32 %37, 4
  br i1 %38, label %39, label %48

39:                                               ; preds = %33
  %40 = getelementptr inbounds [64 x i8], ptr %7, i64 0, i64 0
  %41 = load ptr, ptr %6, align 8
  %42 = getelementptr inbounds nuw %struct.Variable, ptr %41, i32 0, i32 2
  %43 = getelementptr inbounds nuw %struct.PgBenchValue, ptr %42, i32 0, i32 1
  %44 = load i8, ptr %43, align 8, !range !8, !noundef !9
  %45 = trunc i8 %44 to i1
  %46 = select i1 %45, ptr @.str.376, ptr @.str.377
  %47 = call i32 (ptr, i64, ptr, ...) @pg_snprintf(ptr noundef %40, i64 noundef 64, ptr noundef @.str.8, ptr noundef %46)
  br label %77

48:                                               ; preds = %33
  %49 = load ptr, ptr %6, align 8
  %50 = getelementptr inbounds nuw %struct.Variable, ptr %49, i32 0, i32 2
  %51 = getelementptr inbounds nuw %struct.PgBenchValue, ptr %50, i32 0, i32 0
  %52 = load i32, ptr %51, align 8
  %53 = icmp eq i32 %52, 2
  br i1 %53, label %54, label %61

54:                                               ; preds = %48
  %55 = getelementptr inbounds [64 x i8], ptr %7, i64 0, i64 0
  %56 = load ptr, ptr %6, align 8
  %57 = getelementptr inbounds nuw %struct.Variable, ptr %56, i32 0, i32 2
  %58 = getelementptr inbounds nuw %struct.PgBenchValue, ptr %57, i32 0, i32 1
  %59 = load i64, ptr %58, align 8
  %60 = call i32 (ptr, i64, ptr, ...) @pg_snprintf(ptr noundef %55, i64 noundef 64, ptr noundef @.str.238, i64 noundef %59)
  br label %76

61:                                               ; preds = %48
  %62 = load ptr, ptr %6, align 8
  %63 = getelementptr inbounds nuw %struct.Variable, ptr %62, i32 0, i32 2
  %64 = getelementptr inbounds nuw %struct.PgBenchValue, ptr %63, i32 0, i32 0
  %65 = load i32, ptr %64, align 8
  %66 = icmp eq i32 %65, 3
  br i1 %66, label %67, label %74

67:                                               ; preds = %61
  %68 = getelementptr inbounds [64 x i8], ptr %7, i64 0, i64 0
  %69 = load ptr, ptr %6, align 8
  %70 = getelementptr inbounds nuw %struct.Variable, ptr %69, i32 0, i32 2
  %71 = getelementptr inbounds nuw %struct.PgBenchValue, ptr %70, i32 0, i32 1
  %72 = load double, ptr %71, align 8
  %73 = call i32 (ptr, i64, ptr, ...) @pg_snprintf(ptr noundef %68, i64 noundef 64, ptr noundef @.str.378, i32 noundef 15, double noundef %72)
  br label %75

74:                                               ; preds = %61
  br label %75

75:                                               ; preds = %74, %67
  br label %76

76:                                               ; preds = %75, %54
  br label %77

77:                                               ; preds = %76, %39
  br label %78

78:                                               ; preds = %77, %30
  %79 = getelementptr inbounds [64 x i8], ptr %7, i64 0, i64 0
  %80 = call ptr @pg_strdup(ptr noundef %79)
  %81 = load ptr, ptr %6, align 8
  %82 = getelementptr inbounds nuw %struct.Variable, ptr %81, i32 0, i32 1
  store ptr %80, ptr %82, align 8
  %83 = load ptr, ptr %6, align 8
  %84 = getelementptr inbounds nuw %struct.Variable, ptr %83, i32 0, i32 1
  %85 = load ptr, ptr %84, align 8
  store ptr %85, ptr %3, align 8
  store i32 1, ptr %8, align 4
  br label %86

86:                                               ; preds = %78, %20, %14
  call void @llvm.lifetime.end.p0(i64 64, ptr %7) #14
  call void @llvm.lifetime.end.p0(i64 8, ptr %6) #14
  %87 = load ptr, ptr %3, align 8
  ret ptr %87
}