; Function Attrs: nounwind uwtable
define internal fastcc ptr @getVariable(ptr noundef captures(none) %0, ptr noundef readonly captures(none) %1) unnamed_addr #0 {
  %3 = alloca [64 x i8], align 16
  call void @llvm.lifetime.start.p0(i64 64, ptr nonnull %3) #25
  %4 = getelementptr inbounds nuw i8, ptr %0, i64 8
  %5 = load i32, ptr %4, align 8
  %6 = icmp slt i32 %5, 1
  br i1 %6, label %lookupVariable.exit.thread, label %7

7:                                                ; preds = %2
  %8 = getelementptr inbounds nuw i8, ptr %0, i64 16
  %9 = load i8, ptr %8, align 8, !range !20, !noundef !21
  %10 = trunc nuw i8 %9 to i1
  %11 = load ptr, ptr %0, align 8
  br i1 %10, label %.lr.ph.i.preheader.i, label %12

12:                                               ; preds = %7
  %13 = zext nneg i32 %5 to i64
  tail call void @pg_qsort(ptr noundef %11, i64 noundef %13, i64 noundef 32, ptr noundef nonnull @compareVariableNames) #25
  store i8 1, ptr %8, align 8
  %.pre.i = load i32, ptr %4, align 8
  %14 = load ptr, ptr %0, align 8
  %.not24.i.i = icmp eq i32 %.pre.i, 0
  br i1 %.not24.i.i, label %lookupVariable.exit.thread, label %.lr.ph.i.preheader.i

.lr.ph.i.preheader.i:                             ; preds = %12, %7
  %15 = phi ptr [ %14, %12 ], [ %11, %7 ]
  %16 = phi i32 [ %.pre.i, %12 ], [ %5, %7 ]
  %17 = sext i32 %16 to i64
  br label %.lr.ph.i.i

.lr.ph.i.i:                                       ; preds = %28, %.lr.ph.i.preheader.i
  %.01621.i.i = phi i64 [ %.1.i.i, %28 ], [ 0, %.lr.ph.i.preheader.i ]
  %.01720.i.i = phi i64 [ %.118.i.i, %28 ], [ %17, %.lr.ph.i.preheader.i ]
  %18 = add i64 %.01720.i.i, %.01621.i.i
  %19 = lshr i64 %18, 1
  %20 = shl i64 %19, 5
  %21 = getelementptr inbounds nuw i8, ptr %15, i64 %20
  %22 = load ptr, ptr %21, align 8
  %23 = tail call i32 @strcmp(ptr noundef nonnull readonly dereferenceable(1) %1, ptr noundef nonnull dereferenceable(1) %22) #27
  %24 = icmp slt i32 %23, 0
  br i1 %24, label %28, label %25

25:                                               ; preds = %.lr.ph.i.i
  %.not.i.i = icmp eq i32 %23, 0
  br i1 %.not.i.i, label %lookupVariable.exit, label %26

26:                                               ; preds = %25
  %27 = add nuw i64 %19, 1
  br label %28

28:                                               ; preds = %26, %.lr.ph.i.i
  %.118.i.i = phi i64 [ %.01720.i.i, %26 ], [ %19, %.lr.ph.i.i ]
  %.1.i.i = phi i64 [ %27, %26 ], [ %.01621.i.i, %.lr.ph.i.i ]
  %29 = icmp ult i64 %.1.i.i, %.118.i.i
  br i1 %29, label %.lr.ph.i.i, label %lookupVariable.exit.thread, !llvm.loop !22

lookupVariable.exit:                              ; preds = %25
  %30 = getelementptr inbounds nuw i8, ptr %15, i64 %20
  %31 = getelementptr inbounds nuw i8, ptr %30, i64 8
  %32 = load ptr, ptr %31, align 8
  %.not = icmp eq ptr %32, null
  br i1 %.not, label %33, label %lookupVariable.exit.thread

33:                                               ; preds = %lookupVariable.exit
  %34 = getelementptr inbounds nuw i8, ptr %30, i64 16
  %35 = load i32, ptr %34, align 8
  switch i32 %35, label %52 [
    i32 1, label %36
    i32 4, label %38
    i32 2, label %44
    i32 3, label %48
  ]

36:                                               ; preds = %33
  %37 = call i32 (ptr, i64, ptr, ...) @pg_snprintf(ptr noundef nonnull %3, i64 noundef 64, ptr noundef nonnull @.str.375) #25
  br label %52

38:                                               ; preds = %33
  %39 = getelementptr inbounds nuw i8, ptr %30, i64 24
  %40 = load i8, ptr %39, align 8, !range !20, !noundef !21
  %41 = trunc nuw i8 %40 to i1
  %42 = select i1 %41, ptr @.str.376, ptr @.str.377
  %43 = call i32 (ptr, i64, ptr, ...) @pg_snprintf(ptr noundef nonnull %3, i64 noundef 64, ptr noundef nonnull @.str.8, ptr noundef nonnull %42) #25
  br label %52

44:                                               ; preds = %33
  %45 = getelementptr inbounds nuw i8, ptr %30, i64 24
  %46 = load i64, ptr %45, align 8
  %47 = call i32 (ptr, i64, ptr, ...) @pg_snprintf(ptr noundef nonnull %3, i64 noundef 64, ptr noundef nonnull @.str.238, i64 noundef %46) #25
  br label %52

48:                                               ; preds = %33
  %49 = getelementptr inbounds nuw i8, ptr %30, i64 24
  %50 = load double, ptr %49, align 8
  %51 = call i32 (ptr, i64, ptr, ...) @pg_snprintf(ptr noundef nonnull %3, i64 noundef 64, ptr noundef nonnull @.str.378, i32 noundef 15, double noundef %50) #25
  br label %52

52:                                               ; preds = %33, %38, %48, %44, %36
  %53 = call ptr @pg_strdup(ptr noundef nonnull %3) #25
  store ptr %53, ptr %31, align 8
  br label %lookupVariable.exit.thread

lookupVariable.exit.thread:                       ; preds = %28, %12, %2, %lookupVariable.exit, %52
  %.0 = phi ptr [ %53, %52 ], [ %32, %lookupVariable.exit ], [ null, %2 ], [ null, %12 ], [ null, %28 ]
  call void @llvm.lifetime.end.p0(i64 64, ptr nonnull %3) #25
  ret ptr %.0
}